; Function Attrs: mustprogress uwtable
define void @_ZN7openvdb5v11_011compression17PagedOutputStream5flushEv(ptr nocapture noundef nonnull align 8 dereferenceable(41) %this) local_unnamed_addr #4 align 2 {
entry:
  %0 = load ptr, ptr %this, align 8
  %mBytes = getelementptr inbounds i8, ptr %this, i64 24
  %1 = load i32, ptr %mBytes, align 8
  %conv = sext i32 %1 to i64
  tail call void @_ZN7openvdb5v11_011compression17PagedOutputStream16compressAndWriteEPKcm(ptr noundef nonnull align 8 dereferenceable(41) %this, ptr noundef %0, i64 noundef %conv)
  store i32 0, ptr %mBytes, align 8
  ret void
}